target datalayout = "e-m:e-p270:32:32-p271:32:32-p272:64:64-i64:64-i128:128-f80:128-n8:16:32:64-S128"
target triple = "x86_64-pc-linux-gnu"

@hf_dplay_play_str_2 = internal global i32 0, align 4
@hf_dplay_command_2 = internal global i32 0, align 4
@hf_dplay_proto_dialect_2 = internal global i32 0, align 4
@hf_dplay_type_05_flags = internal global i32 0, align 4
@hf_dplay_message_guid = internal global i32 0, align 4
@hf_dplay_type_15_packet_idx = internal global i32 0, align 4
@hf_dplay_type_15_data_size = internal global i32 0, align 4
@hf_dplay_type_15_offset = internal global i32 0, align 4
@hf_dplay_type_15_total_packets = internal global i32 0, align 4
@hf_dplay_type_15_msg_size = internal global i32 0, align 4
@hf_dplay_type_15_packet_offset = internal global i32 0, align 4
@ett_dplay_enc_packet = internal global i32 0, align 4
@ett_dplay_type05_flags = internal global i32 0, align 4
@dissect_type05_message.flags = internal constant [6 x ptr] [ptr @hf_dplay_type_05_secure, ptr @hf_dplay_type_05_unknown, ptr @hf_dplay_type_05_local, ptr @hf_dplay_type_05_name_server, ptr @hf_dplay_type_05_system_player, ptr null], align 16
@.str.409 = private unnamed_addr constant [31 x i8] c"DirectPlay encapsulated packet\00", align 1

; Function Attrs: null_pointer_is_valid sspstrong uwtable
define internal i32 @dissect_type05_message(ptr noundef %0, ptr noundef %1, i32 noundef %2) #0 {
  %4 = alloca ptr, align 8
  %5 = alloca ptr, align 8
  %6 = alloca i32, align 4
  store ptr %0, ptr %4, align 8
  store ptr %1, ptr %5, align 8
  store i32 %2, ptr %6, align 4
  %7 = load ptr, ptr %4, align 8
  %8 = load ptr, ptr %5, align 8
  %9 = load i32, ptr %6, align 4
  %10 = load i32, ptr @hf_dplay_type_05_flags, align 4
  %11 = load i32, ptr @ett_dplay_type05_flags, align 4
  %12 = call ptr @proto_tree_add_bitmask(ptr noundef %7, ptr noundef %8, i32 noundef %9, i32 noundef %10, i32 noundef %11, ptr noundef @dissect_type05_message.flags, i32 noundef -2147483648)
  %13 = load i32, ptr %6, align 4
  %14 = add i32 %13, 4
  store i32 %14, ptr %6, align 4
  %15 = load i32, ptr %6, align 4
  ret i32 %15
}

; Function Attrs: null_pointer_is_valid sspstrong uwtable
define internal i32 @dissect_type15_message(ptr noundef %0, ptr noundef %1, i32 noundef %2) #0 {
  %4 = alloca ptr, align 8
  %5 = alloca ptr, align 8
  %6 = alloca i32, align 4
  %7 = alloca i16, align 2
  %8 = alloca ptr, align 8
  store ptr %0, ptr %4, align 8
  store ptr %1, ptr %5, align 8
  store i32 %2, ptr %6, align 4
  call void @llvm.lifetime.start.p0(i64 2, ptr %7) #5
  call void @llvm.lifetime.start.p0(i64 8, ptr %8) #5
  %9 = load ptr, ptr %5, align 8
  %10 = call zeroext i16 @tvb_get_letohs(ptr noundef %9, i32 noundef 72)
  store i16 %10, ptr %7, align 2
  %11 = load ptr, ptr %4, align 8
  %12 = load i32, ptr @hf_dplay_message_guid, align 4
  %13 = load ptr, ptr %5, align 8
  %14 = load i32, ptr %6, align 4
  %15 = call ptr @proto_tree_add_item(ptr noundef %11, i32 noundef %12, ptr noundef %13, i32 noundef %14, i32 noundef 16, i32 noundef 0)
  %16 = load i32, ptr %6, align 4
  %17 = add i32 %16, 16
  store i32 %17, ptr %6, align 4
  %18 = load ptr, ptr %4, align 8
  %19 = load i32, ptr @hf_dplay_type_15_packet_idx, align 4
  %20 = load ptr, ptr %5, align 8
  %21 = load i32, ptr %6, align 4
  %22 = call ptr @proto_tree_add_item(ptr noundef %18, i32 noundef %19, ptr noundef %20, i32 noundef %21, i32 noundef 4, i32 noundef -2147483648)
  %23 = load i32, ptr %6, align 4
  %24 = add i32 %23, 4
  store i32 %24, ptr %6, align 4
  %25 = load ptr, ptr %4, align 8
  %26 = load i32, ptr @hf_dplay_type_15_data_size, align 4
  %27 = load ptr, ptr %5, align 8
  %28 = load i32, ptr %6, align 4
  %29 = call ptr @proto_tree_add_item(ptr noundef %25, i32 noundef %26, ptr noundef %27, i32 noundef %28, i32 noundef 4, i32 noundef -2147483648)
  %30 = load i32, ptr %6, align 4
  %31 = add i32 %30, 4
  store i32 %31, ptr %6, align 4
  %32 = load ptr, ptr %4, align 8
  %33 = load i32, ptr @hf_dplay_type_15_offset, align 4
  %34 = load ptr, ptr %5, align 8
  %35 = load i32, ptr %6, align 4
  %36 = call ptr @proto_tree_add_item(ptr noundef %32, i32 noundef %33, ptr noundef %34, i32 noundef %35, i32 noundef 4, i32 noundef -2147483648)
  %37 = load i32, ptr %6, align 4
  %38 = add i32 %37, 4
  store i32 %38, ptr %6, align 4
  %39 = load ptr, ptr %4, align 8
  %40 = load i32, ptr @hf_dplay_type_15_total_packets, align 4
  %41 = load ptr, ptr %5, align 8
  %42 = load i32, ptr %6, align 4
  %43 = call ptr @proto_tree_add_item(ptr noundef %39, i32 noundef %40, ptr noundef %41, i32 noundef %42, i32 noundef 4, i32 noundef -2147483648)
  %44 = load i32, ptr %6, align 4
  %45 = add i32 %44, 4
  store i32 %45, ptr %6, align 4
  %46 = load ptr, ptr %4, align 8
  %47 = load i32, ptr @hf_dplay_type_15_msg_size, align 4
  %48 = load ptr, ptr %5, align 8
  %49 = load i32, ptr %6, align 4
  %50 = call ptr @proto_tree_add_item(ptr noundef %46, i32 noundef %47, ptr noundef %48, i32 noundef %49, i32 noundef 4, i32 noundef -2147483648)
  %51 = load i32, ptr %6, align 4
  %52 = add i32 %51, 4
  store i32 %52, ptr %6, align 4
  %53 = load ptr, ptr %4, align 8
  %54 = load i32, ptr @hf_dplay_type_15_packet_offset, align 4
  %55 = load ptr, ptr %5, align 8
  %56 = load i32, ptr %6, align 4
  %57 = call ptr @proto_tree_add_item(ptr noundef %53, i32 noundef %54, ptr noundef %55, i32 noundef %56, i32 noundef 4, i32 noundef -2147483648)
  %58 = load i32, ptr %6, align 4
  %59 = add i32 %58, 4
  store i32 %59, ptr %6, align 4
  %60 = load ptr, ptr %4, align 8
  %61 = load ptr, ptr %5, align 8
  %62 = load i32, ptr %6, align 4
  %63 = load i32, ptr @ett_dplay_enc_packet, align 4
  %64 = call ptr @proto_tree_add_subtree(ptr noundef %60, ptr noundef %61, i32 noundef %62, i32 noundef -1, i32 noundef %63, ptr noundef null, ptr noundef @.str.409)
  store ptr %64, ptr %8, align 8
  %65 = load ptr, ptr %8, align 8
  %66 = load i32, ptr @hf_dplay_play_str_2, align 4
  %67 = load ptr, ptr %5, align 8
  %68 = load i32, ptr %6, align 4
  %69 = call ptr @proto_tree_add_item(ptr noundef %65, i32 noundef %66, ptr noundef %67, i32 noundef %68, i32 noundef 4, i32 noundef 0)
  %70 = load i32, ptr %6, align 4
  %71 = add i32 %70, 4
  store i32 %71, ptr %6, align 4
  %72 = load ptr, ptr %8, align 8
  %73 = load i32, ptr @hf_dplay_command_2, align 4
  %74 = load ptr, ptr %5, align 8
  %75 = load i32, ptr %6, align 4
  %76 = call ptr @proto_tree_add_item(ptr noundef %72, i32 noundef %73, ptr noundef %74, i32 noundef %75, i32 noundef 2, i32 noundef -2147483648)
  %77 = load i32, ptr %6, align 4
  %78 = add i32 %77, 2
  store i32 %78, ptr %6, align 4
  %79 = load ptr, ptr %8, align 8
  %80 = load i32, ptr @hf_dplay_proto_dialect_2, align 4
  %81 = load ptr, ptr %5, align 8
  %82 = load i32, ptr %6, align 4
  %83 = call ptr @proto_tree_add_item(ptr noundef %79, i32 noundef %80, ptr noundef %81, i32 noundef %82, i32 noundef 2, i32 noundef -2147483648)
  %84 = load i32, ptr %6, align 4
  %85 = add i32 %84, 2
  store i32 %85, ptr %6, align 4
  %86 = load i16, ptr %7, align 2
  %87 = zext i16 %86 to i32
  switch i32 %87, label %113 [
    i32 5, label %88
    i32 7, label %93
    i32 8, label %98
    i32 9, label %98
    i32 11, label %98
    i32 12, label %98
    i32 13, label %98
    i32 14, label %98
    i32 46, label %98
    i32 19, label %103
    i32 26, label %108
  ]

88:                                               ; preds = %3
  %89 = load ptr, ptr %8, align 8
  %90 = load ptr, ptr %5, align 8
  %91 = load i32, ptr %6, align 4
  %92 = call i32 @dissect_type05_message(ptr noundef %89, ptr noundef %90, i32 noundef %91)
  store i32 %92, ptr %6, align 4
  br label %113

93:                                               ; preds = %3
  %94 = load ptr, ptr %8, align 8
  %95 = load ptr, ptr %5, align 8
  %96 = load i32, ptr %6, align 4
  %97 = call i32 @dissect_type05_message(ptr noundef %94, ptr noundef %95, i32 noundef %96)
  store i32 %97, ptr %6, align 4
  br label %113

98:                                               ; preds = %3, %3, %3, %3, %3, %3, %3
  %99 = load ptr, ptr %8, align 8
  %100 = load ptr, ptr %5, align 8
  %101 = load i32, ptr %6, align 4
  %102 = call i32 @dissect_player_message(ptr noundef %99, ptr noundef %100, i32 noundef %101)
  store i32 %102, ptr %6, align 4
  br label %113

103:                                              ; preds = %3
  %104 = load ptr, ptr %8, align 8
  %105 = load ptr, ptr %5, align 8
  %106 = load i32, ptr %6, align 4
  %107 = call i32 @dissect_type13_message(ptr noundef %104, ptr noundef %105, i32 noundef %106)
  store i32 %107, ptr %6, align 4
  br label %113

108:                                              ; preds = %3
  %109 = load ptr, ptr %8, align 8
  %110 = load ptr, ptr %5, align 8
  %111 = load i32, ptr %6, align 4
  %112 = call i32 @dissect_type1a_message(ptr noundef %109, ptr noundef %110, i32 noundef %111)
  store i32 %112, ptr %6, align 4
  br label %113

113:                                              ; preds = %3, %108, %103, %98, %93, %88
  %114 = load i32, ptr %6, align 4
  call void @llvm.lifetime.end.p0(i64 8, ptr %8) #5
  call void @llvm.lifetime.end.p0(i64 2, ptr %7) #5
  ret i32 %114
}