; Function Attrs: null_pointer_is_valid sspstrong uwtable
define internal fastcc void @dissect_type15_message(ptr noundef %0, ptr noundef %1) unnamed_addr #0 {
  %3 = tail call zeroext i16 @tvb_get_letohs(ptr noundef %1, i32 noundef 72)
  %4 = load i32, ptr @hf_dplay_message_guid, align 4
  %5 = tail call ptr @proto_tree_add_item(ptr noundef %0, i32 noundef %4, ptr noundef %1, i32 noundef 28, i32 noundef 16, i32 noundef 0)
  %6 = load i32, ptr @hf_dplay_type_15_packet_idx, align 4
  %7 = tail call ptr @proto_tree_add_item(ptr noundef %0, i32 noundef %6, ptr noundef %1, i32 noundef 44, i32 noundef 4, i32 noundef -2147483648)
  %8 = load i32, ptr @hf_dplay_type_15_data_size, align 4
  %9 = tail call ptr @proto_tree_add_item(ptr noundef %0, i32 noundef %8, ptr noundef %1, i32 noundef 48, i32 noundef 4, i32 noundef -2147483648)
  %10 = load i32, ptr @hf_dplay_type_15_offset, align 4
  %11 = tail call ptr @proto_tree_add_item(ptr noundef %0, i32 noundef %10, ptr noundef %1, i32 noundef 52, i32 noundef 4, i32 noundef -2147483648)
  %12 = load i32, ptr @hf_dplay_type_15_total_packets, align 4
  %13 = tail call ptr @proto_tree_add_item(ptr noundef %0, i32 noundef %12, ptr noundef %1, i32 noundef 56, i32 noundef 4, i32 noundef -2147483648)
  %14 = load i32, ptr @hf_dplay_type_15_msg_size, align 4
  %15 = tail call ptr @proto_tree_add_item(ptr noundef %0, i32 noundef %14, ptr noundef %1, i32 noundef 60, i32 noundef 4, i32 noundef -2147483648)
  %16 = load i32, ptr @hf_dplay_type_15_packet_offset, align 4
  %17 = tail call ptr @proto_tree_add_item(ptr noundef %0, i32 noundef %16, ptr noundef %1, i32 noundef 64, i32 noundef 4, i32 noundef -2147483648)
  %18 = load i32, ptr @ett_dplay_enc_packet, align 4
  %19 = tail call ptr @proto_tree_add_subtree(ptr noundef %0, ptr noundef %1, i32 noundef 68, i32 noundef -1, i32 noundef %18, ptr noundef null, ptr noundef nonnull @.str.409)
  %20 = load i32, ptr @hf_dplay_play_str_2, align 4
  %21 = tail call ptr @proto_tree_add_item(ptr noundef %19, i32 noundef %20, ptr noundef %1, i32 noundef 68, i32 noundef 4, i32 noundef 0)
  %22 = load i32, ptr @hf_dplay_command_2, align 4
  %23 = tail call ptr @proto_tree_add_item(ptr noundef %19, i32 noundef %22, ptr noundef %1, i32 noundef 72, i32 noundef 2, i32 noundef -2147483648)
  %24 = load i32, ptr @hf_dplay_proto_dialect_2, align 4
  %25 = tail call ptr @proto_tree_add_item(ptr noundef %19, i32 noundef %24, ptr noundef %1, i32 noundef 74, i32 noundef 2, i32 noundef -2147483648)
  switch i16 %3, label %40 [
    i16 5, label %26
    i16 7, label %30
    i16 8, label %34
    i16 9, label %34
    i16 11, label %34
    i16 12, label %34
    i16 13, label %34
    i16 14, label %34
    i16 46, label %34
    i16 19, label %36
    i16 26, label %38
  ]

26:                                               ; preds = %2
  %27 = load i32, ptr @hf_dplay_type_05_flags, align 4
  %28 = load i32, ptr @ett_dplay_type05_flags, align 4
  %29 = tail call ptr @proto_tree_add_bitmask(ptr noundef %19, ptr noundef %1, i32 noundef 76, i32 noundef %27, i32 noundef %28, ptr noundef nonnull @dissect_type05_message.flags, i32 noundef -2147483648)
  br label %40

30:                                               ; preds = %2
  %31 = load i32, ptr @hf_dplay_type_05_flags, align 4
  %32 = load i32, ptr @ett_dplay_type05_flags, align 4
  %33 = tail call ptr @proto_tree_add_bitmask(ptr noundef %19, ptr noundef %1, i32 noundef 76, i32 noundef %31, i32 noundef %32, ptr noundef nonnull @dissect_type05_message.flags, i32 noundef -2147483648)
  br label %40

34:                                               ; preds = %2, %2, %2, %2, %2, %2, %2
  %35 = tail call fastcc i32 @dissect_player_message(ptr noundef %19, ptr noundef %1, i32 noundef 76)
  br label %40

36:                                               ; preds = %2
  %37 = tail call fastcc i32 @dissect_type13_message(ptr noundef %19, ptr noundef %1, i32 noundef 76)
  br label %40

38:                                               ; preds = %2
  %39 = tail call fastcc i32 @dissect_type1a_message(ptr noundef %19, ptr noundef %1, i32 noundef 76)
  br label %40

40:                                               ; preds = %38, %36, %34, %30, %26, %2
  ret void
}